target datalayout = "e-m:e-p270:32:32-p271:32:32-p272:64:64-i64:64-i128:128-f80:128-n8:16:32:64-S128"
target triple = "x86_64-pc-linux-gnu"

%struct._packet_info = type { ptr, ptr, i32, i32, %struct.nstime_t, %struct.nstime_t, %struct.nstime_t, i8, ptr, ptr, ptr, ptr, %struct._address, %struct._address, %struct._address, %struct._address, %struct._address, %struct._address, i32, ptr, i8, [3 x i8], %struct.anon, i32, i32, i32, i32, ptr, i8, ptr, ptr, i16, i16, i32, i32, i16, i32, i32, ptr, ptr, ptr, i8, i8, i16, i16, i16, i32, i16, i16, ptr, ptr, ptr, ptr, ptr, i32, i32 }
%struct.nstime_t = type { i64, i32 }
%struct._address = type { i32, i32, ptr, ptr }
%struct.anon = type { i8, [3 x i8] }
%struct.atp_asp_dsi_info = type { i8, i8, i16, i32 }
%struct.asp_request_val = type { i8 }

@hf_zip_zero_value = internal global i32 0, align 4
@hf_zip_atp_function = internal global i32 0, align 4
@hf_zip_start_index = internal global i32 0, align 4
@hf_zip_count = internal global i32 0, align 4
@hf_zip_last_flag = internal global i32 0, align 4
@hf_zip_zone_name = internal global i32 0, align 4
@ett_zip = internal global i32 0, align 4
@ett_zip_zones_list = internal global i32 0, align 4
@.str.226 = private unnamed_addr constant [4 x i8] c"ZIP\00", align 1
@proto_zip = internal global i32 0, align 4
@atalk_address_type = internal global i32 -1, align 4
@.str.375 = private unnamed_addr constant [17 x i8] c"Unknown (0x%01x)\00", align 1
@.str.384 = private unnamed_addr constant [13 x i8] c"Reply tid %u\00", align 1
@.str.385 = private unnamed_addr constant [21 x i8] c"Function: %s  tid %u\00", align 1

; Function Attrs: nounwind null_pointer_is_valid sspstrong uwtable
define internal zeroext i1 @is_ddp_address(ptr noundef %0) #3 {
  %2 = alloca ptr, align 8
  store ptr %0, ptr %2, align 8
  %3 = load ptr, ptr %2, align 8
  %4 = getelementptr inbounds nuw %struct._address, ptr %3, i32 0, i32 0
  %5 = load i32, ptr %4, align 8
  %6 = load i32, ptr @atalk_address_type, align 4
  %7 = icmp eq i32 %5, %6
  br i1 %7, label %8, label %14

8:                                                ; preds = %1
  %9 = load ptr, ptr %2, align 8
  %10 = getelementptr inbounds nuw %struct._address, ptr %9, i32 0, i32 1
  %11 = load i32, ptr %10, align 4
  %12 = sext i32 %11 to i64
  %13 = icmp eq i64 %12, 4
  br label %14

14:                                               ; preds = %8, %1
  %15 = phi i1 [ false, %1 ], [ %13, %8 ]
  ret i1 %15
}

; Function Attrs: null_pointer_is_valid sspstrong uwtable
define internal i32 @dissect_atp_zip(ptr noundef %0, ptr noundef %1, ptr noundef %2, ptr noundef %3) #1 {
  %5 = alloca i32, align 4
  %6 = alloca ptr, align 8
  %7 = alloca ptr, align 8
  %8 = alloca ptr, align 8
  %9 = alloca ptr, align 8
  %10 = alloca ptr, align 8
  %11 = alloca ptr, align 8
  %12 = alloca i32, align 4
  %13 = alloca ptr, align 8
  %14 = alloca ptr, align 8
  %15 = alloca ptr, align 8
  %16 = alloca i8, align 1
  %17 = alloca i16, align 2
  %18 = alloca i8, align 1
  %19 = alloca i32, align 4
  %20 = alloca i32, align 4
  store ptr %0, ptr %6, align 8
  store ptr %1, ptr %7, align 8
  store ptr %2, ptr %8, align 8
  store ptr %3, ptr %9, align 8
  call void @llvm.lifetime.start.p0(i64 8, ptr %10) #11
  call void @llvm.lifetime.start.p0(i64 8, ptr %11) #11
  call void @llvm.lifetime.start.p0(i64 4, ptr %12) #11
  store i32 0, ptr %12, align 4
  call void @llvm.lifetime.start.p0(i64 8, ptr %13) #11
  call void @llvm.lifetime.start.p0(i64 8, ptr %14) #11
  call void @llvm.lifetime.start.p0(i64 8, ptr %15) #11
  call void @llvm.lifetime.start.p0(i64 1, ptr %16) #11
  call void @llvm.lifetime.start.p0(i64 2, ptr %17) #11
  call void @llvm.lifetime.start.p0(i64 1, ptr %18) #11
  %21 = load ptr, ptr %9, align 8
  %22 = icmp eq ptr %21, null
  br i1 %22, label %23, label %24

23:                                               ; preds = %4
  store i32 0, ptr %5, align 4
  store i32 1, ptr %19, align 4
  br label %184

24:                                               ; preds = %4
  %25 = load ptr, ptr %7, align 8
  %26 = getelementptr inbounds nuw %struct._packet_info, ptr %25, i32 0, i32 16
  %27 = call zeroext i1 @is_ddp_address(ptr noundef %26)
  br i1 %27, label %28, label %32

28:                                               ; preds = %24
  %29 = load ptr, ptr %7, align 8
  %30 = getelementptr inbounds nuw %struct._packet_info, ptr %29, i32 0, i32 17
  %31 = call zeroext i1 @is_ddp_address(ptr noundef %30)
  br i1 %31, label %33, label %32

32:                                               ; preds = %28, %24
  store i32 0, ptr %5, align 4
  store i32 1, ptr %19, align 4
  br label %184

33:                                               ; preds = %28
  %34 = load ptr, ptr %7, align 8
  %35 = getelementptr inbounds nuw %struct._packet_info, ptr %34, i32 0, i32 1
  %36 = load ptr, ptr %35, align 8
  call void @col_set_str(ptr noundef %36, i32 noundef 35, ptr noundef @.str.226)
  %37 = load ptr, ptr %7, align 8
  %38 = getelementptr inbounds nuw %struct._packet_info, ptr %37, i32 0, i32 1
  %39 = load ptr, ptr %38, align 8
  call void @col_clear(ptr noundef %39, i32 noundef 25)
  %40 = load ptr, ptr %9, align 8
  store ptr %40, ptr %10, align 8
  %41 = load ptr, ptr %6, align 8
  %42 = load ptr, ptr %7, align 8
  %43 = load ptr, ptr %10, align 8
  %44 = call ptr @get_transaction(ptr noundef %41, ptr noundef %42, ptr noundef %43)
  store ptr %44, ptr %11, align 8
  %45 = load ptr, ptr %11, align 8
  %46 = icmp ne ptr %45, null
  br i1 %46, label %50, label %47

47:                                               ; preds = %33
  %48 = load ptr, ptr %6, align 8
  %49 = call i32 @tvb_reported_length(ptr noundef %48)
  store i32 %49, ptr %5, align 4
  store i32 1, ptr %19, align 4
  br label %184

50:                                               ; preds = %33
  %51 = load ptr, ptr %11, align 8
  %52 = getelementptr inbounds nuw %struct.asp_request_val, ptr %51, i32 0, i32 0
  %53 = load i8, ptr %52, align 1
  store i8 %53, ptr %16, align 1
  %54 = load ptr, ptr %10, align 8
  %55 = getelementptr inbounds nuw %struct.atp_asp_dsi_info, ptr %54, i32 0, i32 0
  %56 = load i8, ptr %55, align 4
  %57 = icmp ne i8 %56, 0
  br i1 %57, label %58, label %66

58:                                               ; preds = %50
  %59 = load ptr, ptr %7, align 8
  %60 = getelementptr inbounds nuw %struct._packet_info, ptr %59, i32 0, i32 1
  %61 = load ptr, ptr %60, align 8
  %62 = load ptr, ptr %10, align 8
  %63 = getelementptr inbounds nuw %struct.atp_asp_dsi_info, ptr %62, i32 0, i32 2
  %64 = load i16, ptr %63, align 2
  %65 = zext i16 %64 to i32
  call void (ptr, i32, ptr, ...) @col_add_fstr(ptr noundef %61, i32 noundef 25, ptr noundef @.str.384, i32 noundef %65)
  br label %77

66:                                               ; preds = %50
  %67 = load ptr, ptr %7, align 8
  %68 = getelementptr inbounds nuw %struct._packet_info, ptr %67, i32 0, i32 1
  %69 = load ptr, ptr %68, align 8
  %70 = load i8, ptr %16, align 1
  %71 = zext i8 %70 to i32
  %72 = call ptr @val_to_str(i32 noundef %71, ptr noundef @zip_atp_function_vals, ptr noundef @.str.375)
  %73 = load ptr, ptr %10, align 8
  %74 = getelementptr inbounds nuw %struct.atp_asp_dsi_info, ptr %73, i32 0, i32 2
  %75 = load i16, ptr %74, align 2
  %76 = zext i16 %75 to i32
  call void (ptr, i32, ptr, ...) @col_add_fstr(ptr noundef %69, i32 noundef 25, ptr noundef @.str.385, ptr noundef %72, i32 noundef %76)
  br label %77

77:                                               ; preds = %66, %58
  %78 = load ptr, ptr %8, align 8
  %79 = icmp ne ptr %78, null
  br i1 %79, label %83, label %80

80:                                               ; preds = %77
  %81 = load ptr, ptr %6, align 8
  %82 = call i32 @tvb_reported_length(ptr noundef %81)
  store i32 %82, ptr %5, align 4
  store i32 1, ptr %19, align 4
  br label %184

83:                                               ; preds = %77
  %84 = load ptr, ptr %8, align 8
  %85 = load i32, ptr @proto_zip, align 4
  %86 = load ptr, ptr %6, align 8
  %87 = load i32, ptr %12, align 4
  %88 = call ptr @proto_tree_add_item(ptr noundef %84, i32 noundef %85, ptr noundef %86, i32 noundef %87, i32 noundef -1, i32 noundef 0)
  store ptr %88, ptr %15, align 8
  %89 = load ptr, ptr %15, align 8
  %90 = load i32, ptr @ett_zip, align 4
  %91 = call ptr @proto_item_add_subtree(ptr noundef %89, i32 noundef %90)
  store ptr %91, ptr %13, align 8
  %92 = load ptr, ptr %10, align 8
  %93 = getelementptr inbounds nuw %struct.atp_asp_dsi_info, ptr %92, i32 0, i32 0
  %94 = load i8, ptr %93, align 4
  %95 = icmp ne i8 %94, 0
  br i1 %95, label %120, label %96

96:                                               ; preds = %83
  %97 = load ptr, ptr %13, align 8
  %98 = load i32, ptr @hf_zip_atp_function, align 4
  %99 = load ptr, ptr %6, align 8
  %100 = load i32, ptr %12, align 4
  %101 = call ptr @proto_tree_add_item(ptr noundef %97, i32 noundef %98, ptr noundef %99, i32 noundef %100, i32 noundef 1, i32 noundef 0)
  %102 = load i32, ptr %12, align 4
  %103 = add i32 %102, 1
  store i32 %103, ptr %12, align 4
  %104 = load i8, ptr %16, align 1
  %105 = zext i8 %104 to i32
  switch i32 %105, label %119 [
    i32 7, label %106
    i32 8, label %106
    i32 9, label %106
  ]

106:                                              ; preds = %96, %96, %96
  %107 = load ptr, ptr %13, align 8
  %108 = load i32, ptr @hf_zip_zero_value, align 4
  %109 = load ptr, ptr %6, align 8
  %110 = load i32, ptr %12, align 4
  %111 = call ptr @proto_tree_add_item(ptr noundef %107, i32 noundef %108, ptr noundef %109, i32 noundef %110, i32 noundef 1, i32 noundef 0)
  %112 = load i32, ptr %12, align 4
  %113 = add i32 %112, 1
  store i32 %113, ptr %12, align 4
  %114 = load ptr, ptr %13, align 8
  %115 = load i32, ptr @hf_zip_start_index, align 4
  %116 = load ptr, ptr %6, align 8
  %117 = load i32, ptr %12, align 4
  %118 = call ptr @proto_tree_add_item(ptr noundef %114, i32 noundef %115, ptr noundef %116, i32 noundef %117, i32 noundef 2, i32 noundef 0)
  br label %119

119:                                              ; preds = %96, %106
  br label %181

120:                                              ; preds = %83
  call void @llvm.lifetime.start.p0(i64 4, ptr %20) #11
  %121 = load ptr, ptr %13, align 8
  %122 = load i32, ptr @hf_zip_atp_function, align 4
  %123 = load ptr, ptr %6, align 8
  %124 = load i8, ptr %16, align 1
  %125 = zext i8 %124 to i32
  %126 = call ptr @proto_tree_add_uint(ptr noundef %121, i32 noundef %122, ptr noundef %123, i32 noundef 0, i32 noundef 0, i32 noundef %125)
  %127 = load i8, ptr %16, align 1
  %128 = zext i8 %127 to i32
  switch i32 %128, label %180 [
    i32 7, label %129
    i32 8, label %129
    i32 9, label %129
  ]

129:                                              ; preds = %120, %120, %120
  %130 = load ptr, ptr %13, align 8
  %131 = load i32, ptr @hf_zip_last_flag, align 4
  %132 = load ptr, ptr %6, align 8
  %133 = load i32, ptr %12, align 4
  %134 = call ptr @proto_tree_add_item(ptr noundef %130, i32 noundef %131, ptr noundef %132, i32 noundef %133, i32 noundef 1, i32 noundef 0)
  %135 = load i32, ptr %12, align 4
  %136 = add i32 %135, 1
  store i32 %136, ptr %12, align 4
  %137 = load ptr, ptr %13, align 8
  %138 = load i32, ptr @hf_zip_zero_value, align 4
  %139 = load ptr, ptr %6, align 8
  %140 = load i32, ptr %12, align 4
  %141 = call ptr @proto_tree_add_item(ptr noundef %137, i32 noundef %138, ptr noundef %139, i32 noundef %140, i32 noundef 1, i32 noundef 0)
  %142 = load i32, ptr %12, align 4
  %143 = add i32 %142, 1
  store i32 %143, ptr %12, align 4
  %144 = load ptr, ptr %6, align 8
  %145 = load i32, ptr %12, align 4
  %146 = call zeroext i16 @tvb_get_ntohs(ptr noundef %144, i32 noundef %145)
  store i16 %146, ptr %17, align 2
  %147 = load ptr, ptr %13, align 8
  %148 = load i32, ptr @hf_zip_count, align 4
  %149 = load ptr, ptr %6, align 8
  %150 = load i32, ptr %12, align 4
  %151 = call ptr @proto_tree_add_item(ptr noundef %147, i32 noundef %148, ptr noundef %149, i32 noundef %150, i32 noundef 2, i32 noundef 0)
  store ptr %151, ptr %15, align 8
  %152 = load i32, ptr %12, align 4
  %153 = add i32 %152, 2
  store i32 %153, ptr %12, align 4
  %154 = load ptr, ptr %15, align 8
  %155 = load i32, ptr @ett_zip_zones_list, align 4
  %156 = call ptr @proto_item_add_subtree(ptr noundef %154, i32 noundef %155)
  store ptr %156, ptr %14, align 8
  store i32 0, ptr %20, align 4
  br label %157

157:                                              ; preds = %176, %129
  %158 = load i32, ptr %20, align 4
  %159 = load i16, ptr %17, align 2
  %160 = zext i16 %159 to i32
  %161 = icmp ult i32 %158, %160
  br i1 %161, label %162, label %179

162:                                              ; preds = %157
  %163 = load ptr, ptr %6, align 8
  %164 = load i32, ptr %12, align 4
  %165 = call zeroext i8 @tvb_get_uint8(ptr noundef %163, i32 noundef %164)
  store i8 %165, ptr %18, align 1
  %166 = load ptr, ptr %14, align 8
  %167 = load i32, ptr @hf_zip_zone_name, align 4
  %168 = load ptr, ptr %6, align 8
  %169 = load i32, ptr %12, align 4
  %170 = call ptr @proto_tree_add_item(ptr noundef %166, i32 noundef %167, ptr noundef %168, i32 noundef %169, i32 noundef 1, i32 noundef 0)
  %171 = load i8, ptr %18, align 1
  %172 = zext i8 %171 to i32
  %173 = add i32 %172, 1
  %174 = load i32, ptr %12, align 4
  %175 = add i32 %174, %173
  store i32 %175, ptr %12, align 4
  br label %176

176:                                              ; preds = %162
  %177 = load i32, ptr %20, align 4
  %178 = add i32 %177, 1
  store i32 %178, ptr %20, align 4
  br label %157, !llvm.loop !13

179:                                              ; preds = %157
  br label %180

180:                                              ; preds = %120, %179
  call void @llvm.lifetime.end.p0(i64 4, ptr %20) #11
  br label %181

181:                                              ; preds = %180, %119
  %182 = load ptr, ptr %6, align 8
  %183 = call i32 @tvb_reported_length(ptr noundef %182)
  store i32 %183, ptr %5, align 4
  store i32 1, ptr %19, align 4
  br label %184

184:                                              ; preds = %181, %80, %47, %32, %23
  call void @llvm.lifetime.end.p0(i64 1, ptr %18) #11
  call void @llvm.lifetime.end.p0(i64 2, ptr %17) #11
  call void @llvm.lifetime.end.p0(i64 1, ptr %16) #11
  call void @llvm.lifetime.end.p0(i64 8, ptr %15) #11
  call void @llvm.lifetime.end.p0(i64 8, ptr %14) #11
  call void @llvm.lifetime.end.p0(i64 8, ptr %13) #11
  call void @llvm.lifetime.end.p0(i64 4, ptr %12) #11
  call void @llvm.lifetime.end.p0(i64 8, ptr %11) #11
  call void @llvm.lifetime.end.p0(i64 8, ptr %10) #11
  %185 = load i32, ptr %5, align 4
  ret i32 %185
}