; Function Attrs: null_pointer_is_valid sspstrong uwtable
define internal i32 @dissect_atp_zip(ptr noundef %0, ptr noundef %1, ptr noundef %2, ptr noundef readonly captures(address_is_null) %3) #1 {
  %5 = icmp eq ptr %3, null
  br i1 %5, label %is_ddp_address.exit.thread, label %6

6:                                                ; preds = %4
  %7 = getelementptr inbounds nuw i8, ptr %1, i64 208
  %8 = load i32, ptr %7, align 8
  %9 = load i32, ptr @atalk_address_type, align 4
  %10 = icmp eq i32 %8, %9
  br i1 %10, label %is_ddp_address.exit, label %is_ddp_address.exit.thread

is_ddp_address.exit:                              ; preds = %6
  %11 = getelementptr inbounds nuw i8, ptr %1, i64 212
  %12 = load i32, ptr %11, align 4
  %13 = icmp eq i32 %12, 4
  br i1 %13, label %14, label %is_ddp_address.exit.thread

14:                                               ; preds = %is_ddp_address.exit
  %15 = getelementptr inbounds nuw i8, ptr %1, i64 232
  %16 = load i32, ptr %15, align 8
  %17 = icmp eq i32 %16, %8
  br i1 %17, label %is_ddp_address.exit77, label %is_ddp_address.exit.thread

is_ddp_address.exit77:                            ; preds = %14
  %18 = getelementptr inbounds nuw i8, ptr %1, i64 236
  %19 = load i32, ptr %18, align 4
  %20 = icmp eq i32 %19, 4
  br i1 %20, label %21, label %is_ddp_address.exit.thread

21:                                               ; preds = %is_ddp_address.exit77
  %22 = getelementptr inbounds nuw i8, ptr %1, i64 8
  %23 = load ptr, ptr %22, align 8
  tail call void @col_set_str(ptr noundef %23, i32 noundef 35, ptr noundef nonnull @.str.226)
  %24 = load ptr, ptr %22, align 8
  tail call void @col_clear(ptr noundef %24, i32 noundef 25)
  %25 = tail call fastcc ptr @get_transaction(ptr noundef %0, ptr noundef %1, ptr noundef %3)
  %.not = icmp eq ptr %25, null
  br i1 %.not, label %is_ddp_address.exit.thread.sink.split, label %26

26:                                               ; preds = %21
  %27 = load i8, ptr %25, align 1
  %28 = load i8, ptr %3, align 4
  %.not72 = icmp eq i8 %28, 0
  %29 = load ptr, ptr %22, align 8
  br i1 %.not72, label %34, label %30

30:                                               ; preds = %26
  %31 = getelementptr inbounds nuw i8, ptr %3, i64 2
  %32 = load i16, ptr %31, align 2
  %33 = zext i16 %32 to i32
  tail call void (ptr, i32, ptr, ...) @col_add_fstr(ptr noundef %29, i32 noundef 25, ptr noundef nonnull @.str.384, i32 noundef %33)
  br label %40

34:                                               ; preds = %26
  %35 = zext i8 %27 to i32
  %36 = tail call ptr @val_to_str(i32 noundef %35, ptr noundef nonnull @zip_atp_function_vals, ptr noundef nonnull @.str.375)
  %37 = getelementptr inbounds nuw i8, ptr %3, i64 2
  %38 = load i16, ptr %37, align 2
  %39 = zext i16 %38 to i32
  tail call void (ptr, i32, ptr, ...) @col_add_fstr(ptr noundef %29, i32 noundef 25, ptr noundef nonnull @.str.385, ptr noundef %36, i32 noundef %39)
  br label %40

40:                                               ; preds = %34, %30
  %.not73 = icmp eq ptr %2, null
  br i1 %.not73, label %is_ddp_address.exit.thread.sink.split, label %41

41:                                               ; preds = %40
  %42 = load i32, ptr @proto_zip, align 4
  %43 = tail call ptr @proto_tree_add_item(ptr noundef nonnull %2, i32 noundef %42, ptr noundef %0, i32 noundef 0, i32 noundef -1, i32 noundef 0)
  %44 = load i32, ptr @ett_zip, align 4
  %45 = tail call ptr @proto_item_add_subtree(ptr noundef %43, i32 noundef %44)
  %46 = load i8, ptr %3, align 4
  %.not74 = icmp eq i8 %46, 0
  %47 = load i32, ptr @hf_zip_atp_function, align 4
  br i1 %.not74, label %48, label %55

48:                                               ; preds = %41
  %49 = tail call ptr @proto_tree_add_item(ptr noundef %45, i32 noundef %47, ptr noundef %0, i32 noundef 0, i32 noundef 1, i32 noundef 0)
  %.off = add i8 %27, -7
  %switch = icmp ult i8 %.off, 3
  br i1 %switch, label %50, label %is_ddp_address.exit.thread.sink.split

50:                                               ; preds = %48
  %51 = load i32, ptr @hf_zip_zero_value, align 4
  %52 = tail call ptr @proto_tree_add_item(ptr noundef %45, i32 noundef %51, ptr noundef %0, i32 noundef 1, i32 noundef 1, i32 noundef 0)
  %53 = load i32, ptr @hf_zip_start_index, align 4
  %54 = tail call ptr @proto_tree_add_item(ptr noundef %45, i32 noundef %53, ptr noundef %0, i32 noundef 2, i32 noundef 2, i32 noundef 0)
  br label %is_ddp_address.exit.thread.sink.split

55:                                               ; preds = %41
  %56 = zext i8 %27 to i32
  %57 = tail call ptr @proto_tree_add_uint(ptr noundef %45, i32 noundef %47, ptr noundef %0, i32 noundef 0, i32 noundef 0, i32 noundef %56)
  %.off75 = add i8 %27, -7
  %switch76 = icmp ult i8 %.off75, 3
  br i1 %switch76, label %58, label %is_ddp_address.exit.thread.sink.split

58:                                               ; preds = %55
  %59 = load i32, ptr @hf_zip_last_flag, align 4
  %60 = tail call ptr @proto_tree_add_item(ptr noundef %45, i32 noundef %59, ptr noundef %0, i32 noundef 0, i32 noundef 1, i32 noundef 0)
  %61 = load i32, ptr @hf_zip_zero_value, align 4
  %62 = tail call ptr @proto_tree_add_item(ptr noundef %45, i32 noundef %61, ptr noundef %0, i32 noundef 1, i32 noundef 1, i32 noundef 0)
  %63 = tail call zeroext i16 @tvb_get_ntohs(ptr noundef %0, i32 noundef 2)
  %64 = load i32, ptr @hf_zip_count, align 4
  %65 = tail call ptr @proto_tree_add_item(ptr noundef %45, i32 noundef %64, ptr noundef %0, i32 noundef 2, i32 noundef 2, i32 noundef 0)
  %66 = load i32, ptr @ett_zip_zones_list, align 4
  %67 = tail call ptr @proto_item_add_subtree(ptr noundef %65, i32 noundef %66)
  %68 = zext i16 %63 to i32
  %.not80 = icmp eq i16 %63, 0
  br i1 %.not80, label %is_ddp_address.exit.thread.sink.split, label %.lr.ph

.lr.ph:                                           ; preds = %58, %.lr.ph
  %.079 = phi i32 [ %75, %.lr.ph ], [ 0, %58 ]
  %.06878 = phi i32 [ %74, %.lr.ph ], [ 4, %58 ]
  %69 = tail call zeroext i8 @tvb_get_uint8(ptr noundef %0, i32 noundef %.06878)
  %70 = load i32, ptr @hf_zip_zone_name, align 4
  %71 = tail call ptr @proto_tree_add_item(ptr noundef %67, i32 noundef %70, ptr noundef %0, i32 noundef %.06878, i32 noundef 1, i32 noundef 0)
  %72 = zext i8 %69 to i32
  %73 = add i32 %.06878, 1
  %74 = add i32 %73, %72
  %75 = add nuw nsw i32 %.079, 1
  %exitcond.not = icmp eq i32 %75, %68
  br i1 %exitcond.not, label %is_ddp_address.exit.thread.sink.split, label %.lr.ph, !llvm.loop !12

is_ddp_address.exit.thread.sink.split:            ; preds = %.lr.ph, %50, %48, %55, %58, %40, %21
  %76 = tail call i32 @tvb_reported_length(ptr noundef %0)
  br label %is_ddp_address.exit.thread

is_ddp_address.exit.thread:                       ; preds = %is_ddp_address.exit.thread.sink.split, %14, %6, %is_ddp_address.exit, %is_ddp_address.exit77, %4
  %.067 = phi i32 [ 0, %4 ], [ 0, %is_ddp_address.exit77 ], [ 0, %is_ddp_address.exit ], [ 0, %6 ], [ 0, %14 ], [ %76, %is_ddp_address.exit.thread.sink.split ]
  ret i32 %.067
}